
intro-to-assembly:     file format elf64-x86-64


Disassembly of section .init:

0000000000401000 <_init>:
  401000:	f3 0f 1e fa          	endbr64 
  401004:	48 83 ec 08          	sub    $0x8,%rsp
  401008:	48 8b 05 e9 2f 00 00 	mov    0x2fe9(%rip),%rax        # 403ff8 <__gmon_start__@Base>
  40100f:	48 85 c0             	test   %rax,%rax
  401012:	74 02                	je     401016 <_init+0x16>
  401014:	ff d0                	callq  *%rax
  401016:	48 83 c4 08          	add    $0x8,%rsp
  40101a:	c3                   	retq   

Disassembly of section .plt:

0000000000401020 <.plt>:
  401020:	ff 35 e2 2f 00 00    	pushq  0x2fe2(%rip)        # 404008 <_GLOBAL_OFFSET_TABLE_+0x8>
  401026:	f2 ff 25 e3 2f 00 00 	bnd jmpq *0x2fe3(%rip)        # 404010 <_GLOBAL_OFFSET_TABLE_+0x10>
  40102d:	0f 1f 00             	nopl   (%rax)
  401030:	f3 0f 1e fa          	endbr64 
  401034:	68 00 00 00 00       	pushq  $0x0
  401039:	f2 e9 e1 ff ff ff    	bnd jmpq 401020 <_init+0x20>
  40103f:	90                   	nop
  401040:	f3 0f 1e fa          	endbr64 
  401044:	68 01 00 00 00       	pushq  $0x1
  401049:	f2 e9 d1 ff ff ff    	bnd jmpq 401020 <_init+0x20>
  40104f:	90                   	nop
  401050:	f3 0f 1e fa          	endbr64 
  401054:	68 02 00 00 00       	pushq  $0x2
  401059:	f2 e9 c1 ff ff ff    	bnd jmpq 401020 <_init+0x20>
  40105f:	90                   	nop
  401060:	f3 0f 1e fa          	endbr64 
  401064:	68 03 00 00 00       	pushq  $0x3
  401069:	f2 e9 b1 ff ff ff    	bnd jmpq 401020 <_init+0x20>
  40106f:	90                   	nop
  401070:	f3 0f 1e fa          	endbr64 
  401074:	68 04 00 00 00       	pushq  $0x4
  401079:	f2 e9 a1 ff ff ff    	bnd jmpq 401020 <_init+0x20>
  40107f:	90                   	nop
  401080:	f3 0f 1e fa          	endbr64 
  401084:	68 05 00 00 00       	pushq  $0x5
  401089:	f2 e9 91 ff ff ff    	bnd jmpq 401020 <_init+0x20>
  40108f:	90                   	nop
  401090:	f3 0f 1e fa          	endbr64 
  401094:	68 06 00 00 00       	pushq  $0x6
  401099:	f2 e9 81 ff ff ff    	bnd jmpq 401020 <_init+0x20>
  40109f:	90                   	nop
  4010a0:	f3 0f 1e fa          	endbr64 
  4010a4:	68 07 00 00 00       	pushq  $0x7
  4010a9:	f2 e9 71 ff ff ff    	bnd jmpq 401020 <_init+0x20>
  4010af:	90                   	nop
  4010b0:	f3 0f 1e fa          	endbr64 
  4010b4:	68 08 00 00 00       	pushq  $0x8
  4010b9:	f2 e9 61 ff ff ff    	bnd jmpq 401020 <_init+0x20>
  4010bf:	90                   	nop
  4010c0:	f3 0f 1e fa          	endbr64 
  4010c4:	68 09 00 00 00       	pushq  $0x9
  4010c9:	f2 e9 51 ff ff ff    	bnd jmpq 401020 <_init+0x20>
  4010cf:	90                   	nop

Disassembly of section .plt.sec:

00000000004010d0 <puts@plt>:
  4010d0:	f3 0f 1e fa          	endbr64 
  4010d4:	f2 ff 25 3d 2f 00 00 	bnd jmpq *0x2f3d(%rip)        # 404018 <puts@GLIBC_2.2.5>
  4010db:	0f 1f 44 00 00       	nopl   0x0(%rax,%rax,1)

00000000004010e0 <strlen@plt>:
  4010e0:	f3 0f 1e fa          	endbr64 
  4010e4:	f2 ff 25 35 2f 00 00 	bnd jmpq *0x2f35(%rip)        # 404020 <strlen@GLIBC_2.2.5>
  4010eb:	0f 1f 44 00 00       	nopl   0x0(%rax,%rax,1)

00000000004010f0 <__stack_chk_fail@plt>:
  4010f0:	f3 0f 1e fa          	endbr64 
  4010f4:	f2 ff 25 2d 2f 00 00 	bnd jmpq *0x2f2d(%rip)        # 404028 <__stack_chk_fail@GLIBC_2.4>
  4010fb:	0f 1f 44 00 00       	nopl   0x0(%rax,%rax,1)

0000000000401100 <mmap@plt>:
  401100:	f3 0f 1e fa          	endbr64 
  401104:	f2 ff 25 25 2f 00 00 	bnd jmpq *0x2f25(%rip)        # 404030 <mmap@GLIBC_2.2.5>
  40110b:	0f 1f 44 00 00       	nopl   0x0(%rax,%rax,1)

0000000000401110 <read@plt>:
  401110:	f3 0f 1e fa          	endbr64 
  401114:	f2 ff 25 1d 2f 00 00 	bnd jmpq *0x2f1d(%rip)        # 404038 <read@GLIBC_2.2.5>
  40111b:	0f 1f 44 00 00       	nopl   0x0(%rax,%rax,1)

0000000000401120 <execve@plt>:
  401120:	f3 0f 1e fa          	endbr64 
  401124:	f2 ff 25 15 2f 00 00 	bnd jmpq *0x2f15(%rip)        # 404040 <execve@GLIBC_2.2.5>
  40112b:	0f 1f 44 00 00       	nopl   0x0(%rax,%rax,1)

0000000000401130 <memcpy@plt>:
  401130:	f3 0f 1e fa          	endbr64 
  401134:	f2 ff 25 0d 2f 00 00 	bnd jmpq *0x2f0d(%rip)        # 404048 <memcpy@GLIBC_2.14>
  40113b:	0f 1f 44 00 00       	nopl   0x0(%rax,%rax,1)

0000000000401140 <munmap@plt>:
  401140:	f3 0f 1e fa          	endbr64 
  401144:	f2 ff 25 05 2f 00 00 	bnd jmpq *0x2f05(%rip)        # 404050 <munmap@GLIBC_2.2.5>
  40114b:	0f 1f 44 00 00       	nopl   0x0(%rax,%rax,1)

0000000000401150 <setvbuf@plt>:
  401150:	f3 0f 1e fa          	endbr64 
  401154:	f2 ff 25 fd 2e 00 00 	bnd jmpq *0x2efd(%rip)        # 404058 <setvbuf@GLIBC_2.2.5>
  40115b:	0f 1f 44 00 00       	nopl   0x0(%rax,%rax,1)

0000000000401160 <exit@plt>:
  401160:	f3 0f 1e fa          	endbr64 
  401164:	f2 ff 25 f5 2e 00 00 	bnd jmpq *0x2ef5(%rip)        # 404060 <exit@GLIBC_2.2.5>
  40116b:	0f 1f 44 00 00       	nopl   0x0(%rax,%rax,1)

Disassembly of section .text:

0000000000401170 <_start>:
  401170:	f3 0f 1e fa          	endbr64 
  401174:	31 ed                	xor    %ebp,%ebp
  401176:	49 89 d1             	mov    %rdx,%r9
  401179:	5e                   	pop    %rsi
  40117a:	48 89 e2             	mov    %rsp,%rdx
  40117d:	48 83 e4 f0          	and    $0xfffffffffffffff0,%rsp
  401181:	50                   	push   %rax
  401182:	54                   	push   %rsp
  401183:	45 31 c0             	xor    %r8d,%r8d
  401186:	31 c9                	xor    %ecx,%ecx
  401188:	48 c7 c7 59 13 40 00 	mov    $0x401359,%rdi
  40118f:	ff 15 5b 2e 00 00    	callq  *0x2e5b(%rip)        # 403ff0 <__libc_start_main@GLIBC_2.34>
  401195:	f4                   	hlt    
  401196:	66 2e 0f 1f 84 00 00 	nopw   %cs:0x0(%rax,%rax,1)
  40119d:	00 00 00 

00000000004011a0 <_dl_relocate_static_pie>:
  4011a0:	f3 0f 1e fa          	endbr64 
  4011a4:	c3                   	retq   
  4011a5:	66 2e 0f 1f 84 00 00 	nopw   %cs:0x0(%rax,%rax,1)
  4011ac:	00 00 00 
  4011af:	90                   	nop

00000000004011b0 <deregister_tm_clones>:
  4011b0:	b8 78 40 40 00       	mov    $0x404078,%eax
  4011b5:	48 3d 78 40 40 00    	cmp    $0x404078,%rax
  4011bb:	74 13                	je     4011d0 <deregister_tm_clones+0x20>
  4011bd:	b8 00 00 00 00       	mov    $0x0,%eax
  4011c2:	48 85 c0             	test   %rax,%rax
  4011c5:	74 09                	je     4011d0 <deregister_tm_clones+0x20>
  4011c7:	bf 78 40 40 00       	mov    $0x404078,%edi
  4011cc:	ff e0                	jmpq   *%rax
  4011ce:	66 90                	xchg   %ax,%ax
  4011d0:	c3                   	retq   
  4011d1:	66 66 2e 0f 1f 84 00 	data16 nopw %cs:0x0(%rax,%rax,1)
  4011d8:	00 00 00 00 
  4011dc:	0f 1f 40 00          	nopl   0x0(%rax)

00000000004011e0 <register_tm_clones>:
  4011e0:	be 78 40 40 00       	mov    $0x404078,%esi
  4011e5:	48 81 ee 78 40 40 00 	sub    $0x404078,%rsi
  4011ec:	48 89 f0             	mov    %rsi,%rax
  4011ef:	48 c1 ee 3f          	shr    $0x3f,%rsi
  4011f3:	48 c1 f8 03          	sar    $0x3,%rax
  4011f7:	48 01 c6             	add    %rax,%rsi
  4011fa:	48 d1 fe             	sar    %rsi
  4011fd:	74 11                	je     401210 <register_tm_clones+0x30>
  4011ff:	b8 00 00 00 00       	mov    $0x0,%eax
  401204:	48 85 c0             	test   %rax,%rax
  401207:	74 07                	je     401210 <register_tm_clones+0x30>
  401209:	bf 78 40 40 00       	mov    $0x404078,%edi
  40120e:	ff e0                	jmpq   *%rax
  401210:	c3                   	retq   
  401211:	66 66 2e 0f 1f 84 00 	data16 nopw %cs:0x0(%rax,%rax,1)
  401218:	00 00 00 00 
  40121c:	0f 1f 40 00          	nopl   0x0(%rax)

0000000000401220 <__do_global_dtors_aux>:
  401220:	f3 0f 1e fa          	endbr64 
  401224:	80 3d 7d 2e 00 00 00 	cmpb   $0x0,0x2e7d(%rip)        # 4040a8 <completed.0>
  40122b:	75 13                	jne    401240 <__do_global_dtors_aux+0x20>
  40122d:	55                   	push   %rbp
  40122e:	48 89 e5             	mov    %rsp,%rbp
  401231:	e8 7a ff ff ff       	callq  4011b0 <deregister_tm_clones>
  401236:	c6 05 6b 2e 00 00 01 	movb   $0x1,0x2e6b(%rip)        # 4040a8 <completed.0>
  40123d:	5d                   	pop    %rbp
  40123e:	c3                   	retq   
  40123f:	90                   	nop
  401240:	c3                   	retq   
  401241:	66 66 2e 0f 1f 84 00 	data16 nopw %cs:0x0(%rax,%rax,1)
  401248:	00 00 00 00 
  40124c:	0f 1f 40 00          	nopl   0x0(%rax)

0000000000401250 <frame_dummy>:
  401250:	f3 0f 1e fa          	endbr64 
  401254:	eb 8a                	jmp    4011e0 <register_tm_clones>

0000000000401256 <setup>:
  401256:	f3 0f 1e fa          	endbr64 
  40125a:	55                   	push   %rbp
  40125b:	48 89 e5             	mov    %rsp,%rbp
  40125e:	48 8b 05 2b 2e 00 00 	mov    0x2e2b(%rip),%rax        # 404090 <stdin@@GLIBC_2.2.5>
  401265:	b9 00 00 00 00       	mov    $0x0,%ecx
  40126a:	ba 02 00 00 00       	mov    $0x2,%edx
  40126f:	be 00 00 00 00       	mov    $0x0,%esi
  401274:	48 89 c7             	mov    %rax,%rdi
  401277:	e8 d4 fe ff ff       	callq  401150 <setvbuf@plt>
  40127c:	48 8b 05 fd 2d 00 00 	mov    0x2dfd(%rip),%rax        # 404080 <stdout@@GLIBC_2.2.5>
  401283:	b9 00 00 00 00       	mov    $0x0,%ecx
  401288:	ba 02 00 00 00       	mov    $0x2,%edx
  40128d:	be 00 00 00 00       	mov    $0x0,%esi
  401292:	48 89 c7             	mov    %rax,%rdi
  401295:	e8 b6 fe ff ff       	callq  401150 <setvbuf@plt>
  40129a:	48 8b 05 ff 2d 00 00 	mov    0x2dff(%rip),%rax        # 4040a0 <stderr@@GLIBC_2.2.5>
  4012a1:	b9 00 00 00 00       	mov    $0x0,%ecx
  4012a6:	ba 02 00 00 00       	mov    $0x2,%edx
  4012ab:	be 00 00 00 00       	mov    $0x0,%esi
  4012b0:	48 89 c7             	mov    %rax,%rdi
  4012b3:	e8 98 fe ff ff       	callq  401150 <setvbuf@plt>
  4012b8:	90                   	nop
  4012b9:	5d                   	pop    %rbp
  4012ba:	c3                   	retq   

00000000004012bb <win>:
  4012bb:	f3 0f 1e fa          	endbr64 
  4012bf:	55                   	push   %rbp
  4012c0:	48 89 e5             	mov    %rsp,%rbp
  4012c3:	48 83 ec 10          	sub    $0x10,%rsp
  4012c7:	48 89 7d f8          	mov    %rdi,-0x8(%rbp)
  4012cb:	89 75 f4             	mov    %esi,-0xc(%rbp)
  4012ce:	89 55 f0             	mov    %edx,-0x10(%rbp)
  4012d1:	48 b8 2f 62 69 6e 2f 	movabs $0x4168732f6e69622f,%rax
  4012d8:	73 68 41 
  4012db:	48 89 05 ce 2d 00 00 	mov    %rax,0x2dce(%rip)        # 4040b0 <string>
  4012e2:	c6 05 cf 2d 00 00 00 	movb   $0x0,0x2dcf(%rip)        # 4040b8 <string+0x8>
  4012e9:	48 8d 05 c0 2d 00 00 	lea    0x2dc0(%rip),%rax        # 4040b0 <string>
  4012f0:	48 89 c7             	mov    %rax,%rdi
  4012f3:	e8 e8 fd ff ff       	callq  4010e0 <strlen@plt>
  4012f8:	48 8d 50 ff          	lea    -0x1(%rax),%rdx
  4012fc:	48 8d 05 ad 2d 00 00 	lea    0x2dad(%rip),%rax        # 4040b0 <string>
  401303:	c6 04 02 00          	movb   $0x0,(%rdx,%rax,1)
  401307:	48 8d 05 fa 0c 00 00 	lea    0xcfa(%rip),%rax        # 402008 <_IO_stdin_used+0x8>
  40130e:	48 39 45 f8          	cmp    %rax,-0x8(%rbp)
  401312:	75 2a                	jne    40133e <win+0x83>
  401314:	81 7d f4 39 05 00 00 	cmpl   $0x539,-0xc(%rbp)
  40131b:	75 21                	jne    40133e <win+0x83>
  40131d:	83 7d f0 00          	cmpl   $0x0,-0x10(%rbp)
  401321:	75 1b                	jne    40133e <win+0x83>
  401323:	ba 00 00 00 00       	mov    $0x0,%edx
  401328:	be 00 00 00 00       	mov    $0x0,%esi
  40132d:	48 8d 05 7c 2d 00 00 	lea    0x2d7c(%rip),%rax        # 4040b0 <string>
  401334:	48 89 c7             	mov    %rax,%rdi
  401337:	e8 e4 fd ff ff       	callq  401120 <execve@plt>
  40133c:	eb 19                	jmp    401357 <win+0x9c>
  40133e:	48 8d 05 c9 0c 00 00 	lea    0xcc9(%rip),%rax        # 40200e <_IO_stdin_used+0xe>
  401345:	48 89 c7             	mov    %rax,%rdi
  401348:	e8 83 fd ff ff       	callq  4010d0 <puts@plt>
  40134d:	bf 00 00 00 00       	mov    $0x0,%edi
  401352:	e8 09 fe ff ff       	callq  401160 <exit@plt>
  401357:	c9                   	leaveq 
  401358:	c3                   	retq   

0000000000401359 <main>:
  401359:	f3 0f 1e fa          	endbr64 
  40135d:	55                   	push   %rbp
  40135e:	48 89 e5             	mov    %rsp,%rbp
  401361:	48 83 ec 40          	sub    $0x40,%rsp
  401365:	64 48 8b 04 25 28 00 	mov    %fs:0x28,%rax
  40136c:	00 00 
  40136e:	48 89 45 f8          	mov    %rax,-0x8(%rbp)
  401372:	31 c0                	xor    %eax,%eax
  401374:	b8 00 00 00 00       	mov    $0x0,%eax
  401379:	e8 d8 fe ff ff       	callq  401256 <setup>
  40137e:	41 b9 00 00 00 00    	mov    $0x0,%r9d
  401384:	41 b8 00 00 00 00    	mov    $0x0,%r8d
  40138a:	b9 22 00 00 00       	mov    $0x22,%ecx
  40138f:	ba 07 00 00 00       	mov    $0x7,%edx
  401394:	be 18 00 00 00       	mov    $0x18,%esi
  401399:	bf 00 00 00 00       	mov    $0x0,%edi
  40139e:	e8 5d fd ff ff       	callq  401100 <mmap@plt>
  4013a3:	48 89 45 c8          	mov    %rax,-0x38(%rbp)
  4013a7:	48 8b 45 c8          	mov    -0x38(%rbp),%rax
  4013ab:	ba 18 00 00 00       	mov    $0x18,%edx
  4013b0:	48 89 c6             	mov    %rax,%rsi
  4013b3:	bf 00 00 00 00       	mov    $0x0,%edi
  4013b8:	e8 53 fd ff ff       	callq  401110 <read@plt>
  4013bd:	48 8b 45 c8          	mov    -0x38(%rbp),%rax
  4013c1:	48 89 c7             	mov    %rax,%rdi
  4013c4:	e8 17 fd ff ff       	callq  4010e0 <strlen@plt>
  4013c9:	89 45 c4             	mov    %eax,-0x3c(%rbp)
  4013cc:	48 c7 45 d0 00 00 00 	movq   $0x0,-0x30(%rbp)
  4013d3:	00 
  4013d4:	48 c7 45 d8 00 00 00 	movq   $0x0,-0x28(%rbp)
  4013db:	00 
  4013dc:	48 c7 45 e0 00 00 00 	movq   $0x0,-0x20(%rbp)
  4013e3:	00 
  4013e4:	c6 45 e8 00          	movb   $0x0,-0x18(%rbp)
  4013e8:	8b 45 c4             	mov    -0x3c(%rbp),%eax
  4013eb:	48 63 d0             	movslq %eax,%rdx
  4013ee:	48 8b 4d c8          	mov    -0x38(%rbp),%rcx
  4013f2:	48 8d 45 d0          	lea    -0x30(%rbp),%rax
  4013f6:	48 89 ce             	mov    %rcx,%rsi
  4013f9:	48 89 c7             	mov    %rax,%rdi
  4013fc:	e8 2f fd ff ff       	callq  401130 <memcpy@plt>
  401401:	c7 45 c0 00 00 00 00 	movl   $0x0,-0x40(%rbp)
  401408:	eb 4a                	jmp    401454 <main+0xfb>
  40140a:	8b 45 c0             	mov    -0x40(%rbp),%eax
  40140d:	48 98                	cltq   
  40140f:	0f b6 44 05 d0       	movzbl -0x30(%rbp,%rax,1),%eax
  401414:	3c 31                	cmp    $0x31,%al
  401416:	74 1f                	je     401437 <main+0xde>
  401418:	8b 45 c0             	mov    -0x40(%rbp),%eax
  40141b:	48 98                	cltq   
  40141d:	0f b6 44 05 d0       	movzbl -0x30(%rbp,%rax,1),%eax
  401422:	3c 0f                	cmp    $0xf,%al
  401424:	75 2a                	jne    401450 <main+0xf7>
  401426:	8b 45 c0             	mov    -0x40(%rbp),%eax
  401429:	83 c0 01             	add    $0x1,%eax
  40142c:	48 98                	cltq   
  40142e:	0f b6 44 05 d0       	movzbl -0x30(%rbp,%rax,1),%eax
  401433:	3c 05                	cmp    $0x5,%al
  401435:	75 19                	jne    401450 <main+0xf7>
  401437:	48 8d 05 da 0b 00 00 	lea    0xbda(%rip),%rax        # 402018 <_IO_stdin_used+0x18>
  40143e:	48 89 c7             	mov    %rax,%rdi
  401441:	e8 8a fc ff ff       	callq  4010d0 <puts@plt>
  401446:	bf 00 00 00 00       	mov    $0x0,%edi
  40144b:	e8 10 fd ff ff       	callq  401160 <exit@plt>
  401450:	83 45 c0 01          	addl   $0x1,-0x40(%rbp)
  401454:	8b 45 c0             	mov    -0x40(%rbp),%eax
  401457:	3b 45 c4             	cmp    -0x3c(%rbp),%eax
  40145a:	7c ae                	jl     40140a <main+0xb1>
  40145c:	48 8b 55 c8          	mov    -0x38(%rbp),%rdx
  401460:	b8 00 00 00 00       	mov    $0x0,%eax
  401465:	ff d2                	callq  *%rdx
  401467:	48 8b 45 c8          	mov    -0x38(%rbp),%rax
  40146b:	be 18 00 00 00       	mov    $0x18,%esi
  401470:	48 89 c7             	mov    %rax,%rdi
  401473:	e8 c8 fc ff ff       	callq  401140 <munmap@plt>
  401478:	90                   	nop
  401479:	48 8b 45 f8          	mov    -0x8(%rbp),%rax
  40147d:	64 48 2b 04 25 28 00 	sub    %fs:0x28,%rax
  401484:	00 00 
  401486:	74 05                	je     40148d <main+0x134>
  401488:	e8 63 fc ff ff       	callq  4010f0 <__stack_chk_fail@plt>
  40148d:	c9                   	leaveq 
  40148e:	c3                   	retq   

Disassembly of section .fini:

0000000000401490 <_fini>:
  401490:	f3 0f 1e fa          	endbr64 
  401494:	48 83 ec 08          	sub    $0x8,%rsp
  401498:	48 83 c4 08          	add    $0x8,%rsp
  40149c:	c3                   	retq   
